	.text
	.syntax unified
	.eabi_attribute	67, "2.09"	@ Tag_conformance
	.cpu	cortex-a8
	.eabi_attribute	6, 10	@ Tag_CPU_arch
	.eabi_attribute	7, 65	@ Tag_CPU_arch_profile
	.eabi_attribute	8, 1	@ Tag_ARM_ISA_use
	.eabi_attribute	9, 2	@ Tag_THUMB_ISA_use
	.fpu	neon
	.eabi_attribute	17, 1	@ Tag_ABI_PCS_GOT_use
	.eabi_attribute	20, 2	@ Tag_ABI_FP_denormal
	.eabi_attribute	23, 1	@ Tag_ABI_FP_number_model
	.eabi_attribute	34, 1	@ Tag_CPU_unaligned_access
	.eabi_attribute	24, 1	@ Tag_ABI_align_needed
	.eabi_attribute	25, 1	@ Tag_ABI_align_preserved
	.eabi_attribute	28, 1	@ Tag_ABI_VFP_args
	.eabi_attribute	38, 1	@ Tag_ABI_FP_16bit_format
	.eabi_attribute	18, 4	@ Tag_ABI_PCS_wchar_t
	.eabi_attribute	26, 2	@ Tag_ABI_enum_size
	.eabi_attribute	14, 0	@ Tag_ABI_PCS_R9_use
	.eabi_attribute	68, 1	@ Tag_Virtualization_use
	.file	"/root/Bela/projects/FourierSerious/build/render.bc"
	.file	1 "/usr/bin/../lib/gcc/arm-linux-gnueabihf/6.3.0/../../../../include/arm-linux-gnueabihf/c++/6.3.0/bits" "c++config.h"
	.file	2 "/usr/bin/../lib/gcc/arm-linux-gnueabihf/6.3.0/../../../../include/c++/6.3.0/bits" "unique_ptr.h"
	.file	3 "/usr/bin/../lib/gcc/arm-linux-gnueabihf/6.3.0/../../../../include/c++/6.3.0" "tuple"
	.file	4 "/usr/bin/../lib/gcc/arm-linux-gnueabihf/6.3.0/../../../../include/c++/6.3.0/bits" "uses_allocator.h"
	.file	5 "/usr/bin/../lib/gcc/arm-linux-gnueabihf/6.3.0/../../../../include/c++/6.3.0" "type_traits"
	.file	6 "./libraries/OscSender" "OscSender.h"
	.file	7 "/usr/bin/../lib/gcc/arm-linux-gnueabihf/6.3.0/../../../../include/c++/6.3.0/bits" "stringfwd.h"
	.file	8 "/usr/lib/llvm-3.9/bin/../lib/clang/3.9.1/include" "stddef.h"
	.file	9 "/root/Bela/projects/FourierSerious" "render.cpp"
	.file	10 "/usr/bin/../lib/gcc/arm-linux-gnueabihf/6.3.0/../../../../include/c++/6.3.0/ext" "concurrence.h"
	.file	11 "/usr/bin/../lib/gcc/arm-linux-gnueabihf/6.3.0/../../../../include/c++/6.3.0/bits" "basic_string.h"
	.file	12 "/usr/bin/../lib/gcc/arm-linux-gnueabihf/6.3.0/../../../../include/c++/6.3.0/bits" "alloc_traits.h"
	.file	13 "/usr/bin/../lib/gcc/arm-linux-gnueabihf/6.3.0/../../../../include/c++/6.3.0/ext" "alloc_traits.h"
	.file	14 "/usr/bin/../lib/gcc/arm-linux-gnueabihf/6.3.0/../../../../include/c++/6.3.0/bits" "char_traits.h"
	.file	15 "/usr/include" "stdlib.h"
	.file	16 "/usr/include/arm-linux-gnueabihf/bits" "stdlib-float.h"
	.file	17 "/usr/include/arm-linux-gnueabihf/bits" "stdlib-bsearch.h"
	.file	18 "/usr/bin/../lib/gcc/arm-linux-gnueabihf/6.3.0/../../../../include/c++/6.3.0" "cstdlib"
	.file	19 "/root/Bela/projects/FourierSerious/build" "render.cpp"
	.file	20 "/usr/bin/../lib/gcc/arm-linux-gnueabihf/6.3.0/../../../../include/c++/6.3.0/debug" "debug.h"
	.file	21 "/usr/bin/../lib/gcc/arm-linux-gnueabihf/6.3.0/../../../../include/c++/6.3.0/bits" "exception_ptr.h"
	.file	22 "/usr/include" "wchar.h"
	.file	23 "/usr/include" "libio.h"
	.file	24 "/usr/include/arm-linux-gnueabihf/bits" "types.h"
	.file	25 "/usr/include" "stdio.h"
	.file	26 "/usr/lib/llvm-3.9/bin/../lib/clang/3.9.1/include" "stdarg.h"
	.file	27 "/usr/include" "stdint.h"
	.file	28 "/usr/include" "locale.h"
	.file	29 "/usr/include" "ctype.h"
	.file	30 "/usr/include" "_G_config.h"
	.file	31 "/usr/include/arm-linux-gnueabihf/bits" "stdio.h"
	.globl	setup
	.p2align	2
	.type	setup,%function
setup:                                  @ @setup
.Lfunc_begin0:
	.loc	9 17 0                  @ /root/Bela/projects/FourierSerious/render.cpp:17:0
	.fnstart
	.cfi_startproc
@ BB#0:
	.save	{r4, r5, r6, r7, r9, r10, r11, lr}
	push	{r4, r5, r6, r7, r9, r10, r11, lr}
.Ltmp8:
	.cfi_def_cfa_offset 32
.Ltmp9:
	.cfi_offset lr, -4
.Ltmp10:
	.cfi_offset r11, -8
.Ltmp11:
	.cfi_offset r10, -12
.Ltmp12:
	.cfi_offset r9, -16
.Ltmp13:
	.cfi_offset r7, -20
.Ltmp14:
	.cfi_offset r6, -24
.Ltmp15:
	.cfi_offset r5, -28
.Ltmp16:
	.cfi_offset r4, -32
	.setfp	r11, sp, #24
	add	r11, sp, #24
.Ltmp17:
	.cfi_def_cfa r11, 8
	.pad	#32
	sub	sp, sp, #32
	@DEBUG_VALUE: setup:context <- %R0
	@DEBUG_VALUE: setup:userData <- %R1
.Ltmp18:
	.loc	9 18 15 prologue_end    @ /root/Bela/projects/FourierSerious/render.cpp:18:15
	ldr	r1, [r0, #40]
.Ltmp19:
	.loc	9 18 5 is_stmt 0        @ /root/Bela/projects/FourierSerious/render.cpp:18:5
	cmp	r1, #0
	beq	.LBB0_17
.Ltmp20:
@ BB#1:
	@DEBUG_VALUE: setup:context <- %R0
	.loc	9 23 42 is_stmt 1       @ /root/Bela/projects/FourierSerious/render.cpp:23:42
	vldr	s0, [r0, #32]
	.loc	9 23 14 is_stmt 0       @ /root/Bela/projects/FourierSerious/render.cpp:23:14
	vldr	s2, [r0, #48]
.Ltmp21:
	.loc	9 23 5                  @ /root/Bela/projects/FourierSerious/render.cpp:23:5
	vcmpe.f32	s2, s0
	vmrs	APSR_nzcv, fpscr
	bgt	.LBB0_18
.Ltmp22:
@ BB#2:
	@DEBUG_VALUE: setup:context <- %R0
	.loc	9 28 14 is_stmt 1       @ /root/Bela/projects/FourierSerious/render.cpp:28:14
	ldr	r1, [r0, #36]
.Ltmp23:
	.loc	9 28 5 is_stmt 0        @ /root/Bela/projects/FourierSerious/render.cpp:28:5
	cmp	r1, #0
	beq	.LBB0_4
.Ltmp24:
@ BB#3:
	@DEBUG_VALUE: setup:context <- %R0
	.loc	9 29 41 is_stmt 1       @ /root/Bela/projects/FourierSerious/render.cpp:29:41
	ldr	r0, [r0, #20]
.Ltmp25:
	.loc	9 29 53 is_stmt 0       @ /root/Bela/projects/FourierSerious/render.cpp:29:53
	bl	__aeabi_uidiv
	.loc	9 29 30                 @ /root/Bela/projects/FourierSerious/render.cpp:29:30
	movw	r1, :lower16:.L_MergedGlobals
	movt	r1, :upper16:.L_MergedGlobals
	str	r0, [r1, #24]
.Ltmp26:
.LBB0_4:
	.loc	9 31 18 is_stmt 1       @ /root/Bela/projects/FourierSerious/render.cpp:31:18
	movw	r7, :lower16:.L_MergedGlobals
	add	r0, sp, #4
.Ltmp27:
	@DEBUG_VALUE: basic_string:__s <- %R9
	@DEBUG_VALUE: length:__s <- %R9
	@DEBUG_VALUE: _M_construct<const char *>:__beg <- %R9
	@DEBUG_VALUE: _M_construct_aux<const char *>:__beg <- %R9
	@DEBUG_VALUE: _M_construct<const char *>:__beg <- %R9
	@DEBUG_VALUE: _S_copy_chars:__k1 <- %R9
	@DEBUG_VALUE: _S_copy:__s <- %R9
	@DEBUG_VALUE: assign:__c2 <- %R9
	@DEBUG_VALUE: _M_local_data:this <- %R0
	movt	r7, :upper16:.L_MergedGlobals
.Ltmp28:
	.loc	11 142 51               @ /usr/bin/../lib/gcc/arm-linux-gnueabihf/6.3.0/../../../../include/c++/6.3.0/bits/basic_string.h:142:51
	add	r5, r0, #8
.Ltmp29:
	.loc	9 31 18                 @ /root/Bela/projects/FourierSerious/render.cpp:31:18
	ldm	r7, {r6, r9}
.Ltmp30:
	.loc	11 110 25               @ /usr/bin/../lib/gcc/arm-linux-gnueabihf/6.3.0/../../../../include/c++/6.3.0/bits/basic_string.h:110:25
	str	r5, [sp, #4]
.Ltmp31:
	.loc	11 456 27               @ /usr/bin/../lib/gcc/arm-linux-gnueabihf/6.3.0/../../../../include/c++/6.3.0/bits/basic_string.h:456:27
	cmp	r9, #0
	beq	.LBB0_20
.Ltmp32:
@ BB#5:                                 @ %.thread.i
	@DEBUG_VALUE: _M_local_data:this <- %R0
	.loc	14 267 16               @ /usr/bin/../lib/gcc/arm-linux-gnueabihf/6.3.0/../../../../include/c++/6.3.0/bits/char_traits.h:267:16
	mov	r0, r9
.Ltmp33:
	bl	strlen
	mov	r4, r0
.Ltmp34:
	@DEBUG_VALUE: _M_construct<const char *>:__dnew <- %R4
	@DEBUG_VALUE: _S_copy:__n <- %R4
	.file	32 "/usr/bin/../lib/gcc/arm-linux-gnueabihf/6.3.0/../../../../include/c++/6.3.0/bits" "basic_string.tcc"
	.loc	32 217 6                @ /usr/bin/../lib/gcc/arm-linux-gnueabihf/6.3.0/../../../../include/c++/6.3.0/bits/basic_string.tcc:217:6
	cmp	r4, #15
	.loc	32 215 12               @ /usr/bin/../lib/gcc/arm-linux-gnueabihf/6.3.0/../../../../include/c++/6.3.0/bits/basic_string.tcc:215:12
	str	r4, [sp, #28]
	bls	.LBB0_8
.Ltmp35:
@ BB#6:                                 @ %.noexc8.i
	@DEBUG_VALUE: _S_copy:__n <- %R4
	@DEBUG_VALUE: _M_construct<const char *>:__dnew <- %R4
	.loc	32 219 14               @ /usr/bin/../lib/gcc/arm-linux-gnueabihf/6.3.0/../../../../include/c++/6.3.0/bits/basic_string.tcc:219:14
.Ltmp0:
	add	r0, sp, #4
.Ltmp36:
	@DEBUG_VALUE: _M_construct<const char *>:this <- %R0
	add	r1, sp, #28
.Ltmp37:
	@DEBUG_VALUE: _M_construct<const char *>:__dnew <- [%R1+0]
	mov	r2, #0
	bl	_ZNSt7__cxx1112basic_stringIcSt11char_traitsIcESaIcEE9_M_createERjj
.Ltmp38:
.Ltmp1:
.Ltmp39:
@ BB#7:                                 @ %.noexc10
	@DEBUG_VALUE: _S_copy:__n <- %R4
	@DEBUG_VALUE: _M_data:__p <- %R0
	.loc	32 220 18               @ /usr/bin/../lib/gcc/arm-linux-gnueabihf/6.3.0/../../../../include/c++/6.3.0/bits/basic_string.tcc:220:18
	ldr	r1, [sp, #28]
.Ltmp40:
	@DEBUG_VALUE: _M_capacity:__capacity <- %R1
	@DEBUG_VALUE: _M_construct<const char *>:__dnew <- %R1
	.loc	11 128 26               @ /usr/bin/../lib/gcc/arm-linux-gnueabihf/6.3.0/../../../../include/c++/6.3.0/bits/basic_string.h:128:26
	str	r0, [sp, #4]
.Ltmp41:
	.loc	11 160 31               @ /usr/bin/../lib/gcc/arm-linux-gnueabihf/6.3.0/../../../../include/c++/6.3.0/bits/basic_string.h:160:31
	str	r1, [sp, #12]
	b	.LBB0_9
.Ltmp42:
.LBB0_8:                                @ %._crit_edge.i.i.i.i
	@DEBUG_VALUE: _S_copy:__n <- %R4
	@DEBUG_VALUE: _M_construct<const char *>:__dnew <- %R4
	.loc	11 136 28               @ /usr/bin/../lib/gcc/arm-linux-gnueabihf/6.3.0/../../../../include/c++/6.3.0/bits/basic_string.h:136:28
	mov	r0, r5
.Ltmp43:
.LBB0_9:
	@DEBUG_VALUE: _S_copy:__n <- %R4
	.loc	11 297 6                @ /usr/bin/../lib/gcc/arm-linux-gnueabihf/6.3.0/../../../../include/c++/6.3.0/bits/basic_string.h:297:6
	cmp	r4, #0
	beq	.LBB0_13
.Ltmp44:
@ BB#10:
	@DEBUG_VALUE: _S_copy:__n <- %R4
	cmp	r4, #1
	bne	.LBB0_12
.Ltmp45:
@ BB#11:
	@DEBUG_VALUE: _S_copy:__n <- %R4
	.loc	14 243 16               @ /usr/bin/../lib/gcc/arm-linux-gnueabihf/6.3.0/../../../../include/c++/6.3.0/bits/char_traits.h:243:16
	ldrb	r1, [r9]
.Ltmp46:
	@DEBUG_VALUE: _S_copy_chars:__p <- %R0
	.loc	14 243 14 is_stmt 0     @ /usr/bin/../lib/gcc/arm-linux-gnueabihf/6.3.0/../../../../include/c++/6.3.0/bits/char_traits.h:243:14
	strb	r1, [r0]
	b	.LBB0_13
.Ltmp47:
.LBB0_12:
	@DEBUG_VALUE: _S_copy:__n <- %R4
	.loc	14 290 33 is_stmt 1     @ /usr/bin/../lib/gcc/arm-linux-gnueabihf/6.3.0/../../../../include/c++/6.3.0/bits/char_traits.h:290:33
	mov	r1, r9
	mov	r2, r4
	bl	memcpy
.Ltmp48:
.LBB0_13:
	@DEBUG_VALUE: _S_copy:__n <- %R4
	.loc	32 232 16               @ /usr/bin/../lib/gcc/arm-linux-gnueabihf/6.3.0/../../../../include/c++/6.3.0/bits/basic_string.tcc:232:16
	ldr	r0, [sp, #28]
.Ltmp49:
	@DEBUG_VALUE: _M_set_length:__n <- %R0
	@DEBUG_VALUE: _M_length:__length <- %R0
	@DEBUG_VALUE: _M_construct<const char *>:__dnew <- %R0
	.loc	14 243 14               @ /usr/bin/../lib/gcc/arm-linux-gnueabihf/6.3.0/../../../../include/c++/6.3.0/bits/char_traits.h:243:14
	mov	r2, #0
.Ltmp50:
	.loc	11 132 26               @ /usr/bin/../lib/gcc/arm-linux-gnueabihf/6.3.0/../../../../include/c++/6.3.0/bits/basic_string.h:132:26
	str	r0, [sp, #8]
.Ltmp51:
	.loc	11 136 28               @ /usr/bin/../lib/gcc/arm-linux-gnueabihf/6.3.0/../../../../include/c++/6.3.0/bits/basic_string.h:136:28
	ldr	r1, [sp, #4]
.Ltmp52:
	.loc	14 243 14               @ /usr/bin/../lib/gcc/arm-linux-gnueabihf/6.3.0/../../../../include/c++/6.3.0/bits/char_traits.h:243:14
	strb	r2, [r1, r0]
.Ltmp53:
	.loc	9 31 12 discriminator 1 @ /root/Bela/projects/FourierSerious/render.cpp:31:12
.Ltmp2:
	add	r0, r7, #28
.Ltmp54:
	add	r2, sp, #4
.Ltmp55:
	@DEBUG_VALUE: _M_data:this <- %R2
	@DEBUG_VALUE: _M_length:this <- %R2
	mov	r1, r6
	bl	_ZN9OscSender5setupEiNSt7__cxx1112basic_stringIcSt11char_traitsIcESaIcEEE
.Ltmp56:
.Ltmp3:
.Ltmp57:
@ BB#14:
	@DEBUG_VALUE: _S_copy:__n <- %R4
	.loc	11 136 28               @ /usr/bin/../lib/gcc/arm-linux-gnueabihf/6.3.0/../../../../include/c++/6.3.0/bits/basic_string.h:136:28
	ldr	r0, [sp, #4]
.Ltmp58:
	@DEBUG_VALUE: deallocate:__p <- %R0
	@DEBUG_VALUE: deallocate:__p <- %R0
	mov	r4, #1
.Ltmp59:
	.loc	11 180 6                @ /usr/bin/../lib/gcc/arm-linux-gnueabihf/6.3.0/../../../../include/c++/6.3.0/bits/basic_string.h:180:6
	cmp	r0, r5
	beq	.LBB0_16
.Ltmp60:
@ BB#15:
	@DEBUG_VALUE: deallocate:__p <- %R0
	@DEBUG_VALUE: deallocate:__p <- %R0
	.file	33 "/usr/bin/../lib/gcc/arm-linux-gnueabihf/6.3.0/../../../../include/c++/6.3.0/ext" "new_allocator.h"
	.loc	33 110 9                @ /usr/bin/../lib/gcc/arm-linux-gnueabihf/6.3.0/../../../../include/c++/6.3.0/ext/new_allocator.h:110:9
	bl	_ZdlPv
.Ltmp61:
.LBB0_16:                               @ %_ZNSt7__cxx1112basic_stringIcSt11char_traitsIcESaIcEED2Ev.exit11
	.loc	9 33 1 discriminator 2  @ /root/Bela/projects/FourierSerious/render.cpp:33:1
	mov	r0, r4
	sub	sp, r11, #24
	pop	{r4, r5, r6, r7, r9, r10, r11, pc}
.LBB0_17:
.Ltmp62:
	@DEBUG_VALUE: setup:context <- %R0
	.loc	9 20 11                 @ /root/Bela/projects/FourierSerious/render.cpp:20:11
	movw	r0, :lower16:stderr
.Ltmp63:
	.loc	9 20 3 is_stmt 0        @ /root/Bela/projects/FourierSerious/render.cpp:20:3
	mov	r1, #56
	.loc	9 20 11                 @ /root/Bela/projects/FourierSerious/render.cpp:20:11
	movt	r0, :upper16:stderr
	ldr	r3, [r0]
	.loc	9 20 3                  @ /root/Bela/projects/FourierSerious/render.cpp:20:3
	movw	r0, :lower16:.L.str.1
	movt	r0, :upper16:.L.str.1
	b	.LBB0_19
.Ltmp64:
.LBB0_18:
	@DEBUG_VALUE: setup:context <- %R0
	.loc	9 25 11 is_stmt 1       @ /root/Bela/projects/FourierSerious/render.cpp:25:11
	movw	r0, :lower16:stderr
.Ltmp65:
	.loc	9 25 3 is_stmt 0        @ /root/Bela/projects/FourierSerious/render.cpp:25:3
	mov	r1, #98
	.loc	9 25 11                 @ /root/Bela/projects/FourierSerious/render.cpp:25:11
	movt	r0, :upper16:stderr
	ldr	r3, [r0]
	.loc	9 25 3                  @ /root/Bela/projects/FourierSerious/render.cpp:25:3
	movw	r0, :lower16:.L.str.2
	movt	r0, :upper16:.L.str.2
.Ltmp66:
.LBB0_19:                               @ %_ZNSt7__cxx1112basic_stringIcSt11char_traitsIcESaIcEED2Ev.exit11
	.loc	9 20 3 is_stmt 1        @ /root/Bela/projects/FourierSerious/render.cpp:20:3
	mov	r2, #1
	bl	fwrite
	mov	r4, #0
	b	.LBB0_16
.Ltmp67:
.LBB0_20:                               @ %.noexc.i
	@DEBUG_VALUE: _M_local_data:this <- %R0
	.loc	32 212 4                @ /usr/bin/../lib/gcc/arm-linux-gnueabihf/6.3.0/../../../../include/c++/6.3.0/bits/basic_string.tcc:212:4
.Ltmp5:
	movw	r0, :lower16:.L.str.6
.Ltmp68:
	movt	r0, :upper16:.L.str.6
	mov	lr, pc
	b	_ZSt19__throw_logic_errorPKc
.Ltmp6:
.Ltmp69:
@ BB#21:                                @ %.noexc
.LBB0_22:
.Ltmp7:
	mov	lr, pc
	b	_Unwind_Resume
.LBB0_23:
.Ltmp70:
	@DEBUG_VALUE: _S_copy:__n <- %R4
.Ltmp4:
	mov	r4, r0
.Ltmp71:
	.loc	11 136 28               @ /usr/bin/../lib/gcc/arm-linux-gnueabihf/6.3.0/../../../../include/c++/6.3.0/bits/basic_string.h:136:28
	ldr	r0, [sp, #4]
.Ltmp72:
	@DEBUG_VALUE: deallocate:__p <- %R0
	@DEBUG_VALUE: deallocate:__p <- %R0
	.loc	11 180 6                @ /usr/bin/../lib/gcc/arm-linux-gnueabihf/6.3.0/../../../../include/c++/6.3.0/bits/basic_string.h:180:6
	cmp	r0, r5
	beq	.LBB0_25
.Ltmp73:
@ BB#24:
	@DEBUG_VALUE: deallocate:__p <- %R0
	@DEBUG_VALUE: deallocate:__p <- %R0
	.loc	33 110 9                @ /usr/bin/../lib/gcc/arm-linux-gnueabihf/6.3.0/../../../../include/c++/6.3.0/ext/new_allocator.h:110:9
	bl	_ZdlPv
.Ltmp74:
.LBB0_25:                               @ %_ZNSt7__cxx1112basic_stringIcSt11char_traitsIcESaIcEED2Ev.exit
	mov	r0, r4
	mov	lr, pc
	b	_Unwind_Resume
.Lfunc_end0:
	.size	setup, .Lfunc_end0-setup
	.cfi_endproc
	.file	34 "/usr/bin/../lib/gcc/arm-linux-gnueabihf/6.3.0/../../../../include/c++/6.3.0/bits" "stl_iterator_base_types.h"
	.file	35 "/usr/bin/../lib/gcc/arm-linux-gnueabihf/6.3.0/../../../../include/c++/6.3.0/bits" "cpp_type_traits.h"
	.globl	__gxx_personality_v0
	.personality __gxx_personality_v0
	.handlerdata
	.p2align	2
GCC_except_table0:
.Lexception0:
	.byte	255                     @ @LPStart Encoding = omit
	.byte	0                       @ @TType Encoding = absptr
	.asciz	"\320"                  @ @TType base offset
	.byte	3                       @ Call site Encoding = udata4
	.byte	78                      @ Call site table length
	.long	.Lfunc_begin0-.Lfunc_begin0 @ >> Call Site 1 <<
	.long	.Ltmp0-.Lfunc_begin0    @   Call between .Lfunc_begin0 and .Ltmp0
	.long	0                       @     has no landing pad
	.byte	0                       @   On action: cleanup
	.long	.Ltmp0-.Lfunc_begin0    @ >> Call Site 2 <<
	.long	.Ltmp1-.Ltmp0           @   Call between .Ltmp0 and .Ltmp1
	.long	.Ltmp7-.Lfunc_begin0    @     jumps to .Ltmp7
	.byte	0                       @   On action: cleanup
	.long	.Ltmp1-.Lfunc_begin0    @ >> Call Site 3 <<
	.long	.Ltmp2-.Ltmp1           @   Call between .Ltmp1 and .Ltmp2
	.long	0                       @     has no landing pad
	.byte	0                       @   On action: cleanup
	.long	.Ltmp2-.Lfunc_begin0    @ >> Call Site 4 <<
	.long	.Ltmp3-.Ltmp2           @   Call between .Ltmp2 and .Ltmp3
	.long	.Ltmp4-.Lfunc_begin0    @     jumps to .Ltmp4
	.byte	0                       @   On action: cleanup
	.long	.Ltmp5-.Lfunc_begin0    @ >> Call Site 5 <<
	.long	.Ltmp6-.Ltmp5           @   Call between .Ltmp5 and .Ltmp6
	.long	.Ltmp7-.Lfunc_begin0    @     jumps to .Ltmp7
	.byte	0                       @   On action: cleanup
	.long	.Ltmp6-.Lfunc_begin0    @ >> Call Site 6 <<
	.long	.Lfunc_end0-.Ltmp6      @   Call between .Ltmp6 and .Lfunc_end0
	.long	0                       @     has no landing pad
	.byte	0                       @   On action: cleanup
	.p2align	2
	.fnend

	.globl	render
	.p2align	2
	.type	render,%function
render:                                 @ @render
.Lfunc_begin1:
	.loc	9 36 0                  @ /root/Bela/projects/FourierSerious/render.cpp:36:0
	.fnstart
	.cfi_startproc
@ BB#0:
	.save	{r4, r5, r6, r7, r8, r9, r10, r11, lr}
	push	{r4, r5, r6, r7, r8, r9, r10, r11, lr}
.Ltmp96:
	.cfi_def_cfa_offset 36
.Ltmp97:
	.cfi_offset lr, -4
.Ltmp98:
	.cfi_offset r11, -8
.Ltmp99:
	.cfi_offset r10, -12
.Ltmp100:
	.cfi_offset r9, -16
.Ltmp101:
	.cfi_offset r8, -20
.Ltmp102:
	.cfi_offset r7, -24
.Ltmp103:
	.cfi_offset r6, -28
.Ltmp104:
	.cfi_offset r5, -32
.Ltmp105:
	.cfi_offset r4, -36
	.setfp	r11, sp, #28
	add	r11, sp, #28
.Ltmp106:
	.cfi_def_cfa r11, 8
	.pad	#76
	sub	sp, sp, #76
	@DEBUG_VALUE: render:context <- %R0
	@DEBUG_VALUE: render:userData <- %R1
	mov	r4, r0
.Ltmp107:
	@DEBUG_VALUE: n <- 0
	@DEBUG_VALUE: render:context <- %R4
	.loc	9 38 39 prologue_end discriminator 1 @ /root/Bela/projects/FourierSerious/render.cpp:38:39
	ldr	r0, [r4, #20]
	.loc	9 38 2 is_stmt 0 discriminator 1 @ /root/Bela/projects/FourierSerious/render.cpp:38:2
	cmp	r0, #0
	beq	.LBB1_22
.Ltmp108:
@ BB#1:                                 @ %.lr.ph
	@DEBUG_VALUE: render:context <- %R4
	@DEBUG_VALUE: render:userData <- %R1
	mov	r0, sp
.Ltmp109:
	.loc	11 142 51 is_stmt 1     @ /usr/bin/../lib/gcc/arm-linux-gnueabihf/6.3.0/../../../../include/c++/6.3.0/bits/basic_string.h:142:51
	add	r7, r0, #8
	add	r0, sp, #24
.Ltmp110:
	.loc	9 40 6                  @ /root/Bela/projects/FourierSerious/render.cpp:40:6
	movw	r10, :lower16:.L_MergedGlobals
.Ltmp111:
	.loc	11 142 51               @ /usr/bin/../lib/gcc/arm-linux-gnueabihf/6.3.0/../../../../include/c++/6.3.0/bits/basic_string.h:142:51
	add	r8, r0, #8
	add	r0, sp, #48
.Ltmp112:
	.loc	11 142 51 is_stmt 0     @ /usr/bin/../lib/gcc/arm-linux-gnueabihf/6.3.0/../../../../include/c++/6.3.0/bits/basic_string.h:142:51
	add	r9, r0, #8
.Ltmp113:
	.loc	9 40 6 is_stmt 1        @ /root/Bela/projects/FourierSerious/render.cpp:40:6
	movt	r10, :upper16:.L_MergedGlobals
	mov	r5, #0
.Ltmp114:
.LBB1_2:                                @ =>This Inner Loop Header: Depth=1
	ldr	r1, [r10, #24]
	.loc	9 40 33 is_stmt 0       @ /root/Bela/projects/FourierSerious/render.cpp:40:33
	cmp	r1, #0
	beq	.LBB1_5
@ BB#3:                                 @   in Loop: Header=BB1_2 Depth=1
	.loc	9 40 40 discriminator 1 @ /root/Bela/projects/FourierSerious/render.cpp:40:40
	mov	r0, r5
	bl	__aeabi_uidivmod
	.loc	9 40 6 discriminator 1  @ /root/Bela/projects/FourierSerious/render.cpp:40:6
	cmp	r1, #0
	bne	.LBB1_5
@ BB#4:                                 @   in Loop: Header=BB1_2 Depth=1
	ldr	r1, [r4, #40]
	ldr	r0, [r4, #8]
.Ltmp115:
	.file	36 "./include" "Bela.h"
	.loc	36 1400 33 is_stmt 1    @ ./include/Bela.h:1400:33
	mul	r1, r1, r5
	.loc	36 1400 9 is_stmt 0     @ ./include/Bela.h:1400:9
	ldr	r1, [r0, r1, lsl #2]!
.Ltmp116:
	.loc	9 41 14 is_stmt 1       @ /root/Bela/projects/FourierSerious/render.cpp:41:14
	str	r1, [r10, #8]
.Ltmp117:
	.loc	36 1400 9               @ ./include/Bela.h:1400:9
	ldr	r0, [r0, #4]
.Ltmp118:
	.loc	9 42 12                 @ /root/Bela/projects/FourierSerious/render.cpp:42:12
	str	r0, [r10, #12]
	ldr	r0, [r4, #16]
	ldr	r0, [r0]
.Ltmp119:
	@DEBUG_VALUE: digitalRead:channel <- 1
	@DEBUG_VALUE: digitalRead:frame <- 0
	.loc	36 1438 56              @ ./include/Bela.h:1438:56
	ubfx	r0, r0, #17, #1
.Ltmp120:
	.loc	9 43 11                 @ /root/Bela/projects/FourierSerious/render.cpp:43:11
	str	r0, [r10, #16]
.Ltmp121:
.LBB1_5:                                @   in Loop: Header=BB1_2 Depth=1
	.loc	9 46 5                  @ /root/Bela/projects/FourierSerious/render.cpp:46:5
	cmp	r5, #0
	bne	.LBB1_21
@ BB#6:                                 @   in Loop: Header=BB1_2 Depth=1
.Ltmp122:
	.loc	9 47 6                  @ /root/Bela/projects/FourierSerious/render.cpp:47:6
	ldr	r0, [r10, #20]
.Ltmp123:
	.loc	9 47 6 is_stmt 0        @ /root/Bela/projects/FourierSerious/render.cpp:47:6
	movw	r1, #44100
.Ltmp124:
	.loc	11 110 25 is_stmt 1     @ /usr/bin/../lib/gcc/arm-linux-gnueabihf/6.3.0/../../../../include/c++/6.3.0/bits/basic_string.h:110:25
	str	r9, [sp, #48]
.Ltmp125:
	@DEBUG_VALUE: _S_copy:__n <- 11
	.loc	9 47 6                  @ /root/Bela/projects/FourierSerious/render.cpp:47:6
	cmp	r0, r1
	movge	r0, #0
.Ltmp126:
	.loc	9 48 16                 @ /root/Bela/projects/FourierSerious/render.cpp:48:16
	strge	r0, [r10, #20]
.Ltmp127:
	.loc	14 290 33               @ /usr/bin/../lib/gcc/arm-linux-gnueabihf/6.3.0/../../../../include/c++/6.3.0/bits/char_traits.h:290:33
	mov	r0, #120
	strb	r0, [r9, #10]
.Ltmp128:
	@DEBUG_VALUE: _S_copy:__s <- undef
	movw	r0, :lower16:.L.str.3
	movt	r0, :upper16:.L.str.3
	vldr	d16, [r0]
	movw	r0, #12139
	strh	r0, [r9, #8]
	mov	r0, #11
	vstr	d16, [r9]
.Ltmp129:
	@DEBUG_VALUE: _M_length:__length <- 11
	.loc	11 132 26               @ /usr/bin/../lib/gcc/arm-linux-gnueabihf/6.3.0/../../../../include/c++/6.3.0/bits/basic_string.h:132:26
	str	r0, [sp, #52]
	mov	r0, #0
.Ltmp130:
	.loc	14 243 14               @ /usr/bin/../lib/gcc/arm-linux-gnueabihf/6.3.0/../../../../include/c++/6.3.0/bits/char_traits.h:243:14
	strb	r0, [sp, #67]
.Ltmp131:
	.loc	9 50 12 discriminator 1 @ /root/Bela/projects/FourierSerious/render.cpp:50:12
.Ltmp75:
	add	r6, r10, #28
.Ltmp132:
	@DEBUG_VALUE: _M_data:this <- undef
	@DEBUG_VALUE: _M_length:this <- undef
	@DEBUG_VALUE: _M_set_length:__n <- 11
	@DEBUG_VALUE: _M_set_length:this <- undef
	@DEBUG_VALUE: _M_data:this <- undef
	@DEBUG_VALUE: _M_construct<const char *>:__dnew <- 11
	@DEBUG_VALUE: _M_construct<const char *>:this <- undef
	@DEBUG_VALUE: _M_construct_aux<const char *>:this <- undef
	@DEBUG_VALUE: _M_construct<const char *>:this <- undef
	@DEBUG_VALUE: _M_local_data:this <- undef
	@DEBUG_VALUE: basic_string:this <- undef
	add	r1, sp, #48
	mov	r0, r6
	bl	_ZN9OscSender10newMessageENSt7__cxx1112basic_stringIcSt11char_traitsIcESaIcEEE
.Ltmp76:
@ BB#7:                                 @   in Loop: Header=BB1_2 Depth=1
	.loc	9 50 50 is_stmt 0 discriminator 2 @ /root/Bela/projects/FourierSerious/render.cpp:50:50
	vldr	s0, [r10, #8]
	.loc	9 50 38 discriminator 2 @ /root/Bela/projects/FourierSerious/render.cpp:50:38
.Ltmp77:
	bl	_ZN9OscSender3addEf
.Ltmp78:
@ BB#8:                                 @   in Loop: Header=BB1_2 Depth=1
	.loc	9 50 59 discriminator 3 @ /root/Bela/projects/FourierSerious/render.cpp:50:59
.Ltmp79:
	bl	_ZN9OscSender4sendEv
.Ltmp80:
@ BB#9:                                 @   in Loop: Header=BB1_2 Depth=1
.Ltmp133:
	.loc	11 136 28 is_stmt 1     @ /usr/bin/../lib/gcc/arm-linux-gnueabihf/6.3.0/../../../../include/c++/6.3.0/bits/basic_string.h:136:28
	ldr	r0, [sp, #48]
.Ltmp134:
	@DEBUG_VALUE: deallocate:__p <- %R0
	@DEBUG_VALUE: deallocate:__p <- %R0
	.loc	11 180 6                @ /usr/bin/../lib/gcc/arm-linux-gnueabihf/6.3.0/../../../../include/c++/6.3.0/bits/basic_string.h:180:6
	cmp	r0, r9
	beq	.LBB1_11
.Ltmp135:
@ BB#10:                                @   in Loop: Header=BB1_2 Depth=1
	@DEBUG_VALUE: deallocate:__p <- %R0
	@DEBUG_VALUE: deallocate:__p <- %R0
	.loc	33 110 9                @ /usr/bin/../lib/gcc/arm-linux-gnueabihf/6.3.0/../../../../include/c++/6.3.0/ext/new_allocator.h:110:9
	bl	_ZdlPv
.Ltmp136:
.LBB1_11:                               @ %_ZNSt7__cxx1112basic_stringIcSt11char_traitsIcESaIcEED2Ev.exit25
                                        @   in Loop: Header=BB1_2 Depth=1
	.loc	14 290 33               @ /usr/bin/../lib/gcc/arm-linux-gnueabihf/6.3.0/../../../../include/c++/6.3.0/bits/char_traits.h:290:33
	mov	r0, #121
.Ltmp137:
	.loc	11 110 25               @ /usr/bin/../lib/gcc/arm-linux-gnueabihf/6.3.0/../../../../include/c++/6.3.0/bits/basic_string.h:110:25
	str	r8, [sp, #24]
.Ltmp138:
	@DEBUG_VALUE: _S_copy:__n <- 11
	.loc	14 290 33               @ /usr/bin/../lib/gcc/arm-linux-gnueabihf/6.3.0/../../../../include/c++/6.3.0/bits/char_traits.h:290:33
	strb	r0, [r8, #10]
.Ltmp139:
	@DEBUG_VALUE: _S_copy:__s <- undef
	movw	r0, :lower16:.L.str.4
	movt	r0, :upper16:.L.str.4
	vldr	d16, [r0]
.Ltmp140:
	.loc	14 290 33 is_stmt 0     @ /usr/bin/../lib/gcc/arm-linux-gnueabihf/6.3.0/../../../../include/c++/6.3.0/bits/char_traits.h:290:33
	movw	r0, #12139
.Ltmp141:
	.loc	14 290 33               @ /usr/bin/../lib/gcc/arm-linux-gnueabihf/6.3.0/../../../../include/c++/6.3.0/bits/char_traits.h:290:33
	strh	r0, [r8, #8]
.Ltmp142:
	.loc	14 290 33               @ /usr/bin/../lib/gcc/arm-linux-gnueabihf/6.3.0/../../../../include/c++/6.3.0/bits/char_traits.h:290:33
	mov	r0, #11
.Ltmp143:
	.loc	14 290 33               @ /usr/bin/../lib/gcc/arm-linux-gnueabihf/6.3.0/../../../../include/c++/6.3.0/bits/char_traits.h:290:33
	vstr	d16, [r8]
.Ltmp144:
	@DEBUG_VALUE: _M_length:__length <- 11
	.loc	11 132 26 is_stmt 1     @ /usr/bin/../lib/gcc/arm-linux-gnueabihf/6.3.0/../../../../include/c++/6.3.0/bits/basic_string.h:132:26
	str	r0, [sp, #28]
	mov	r0, #0
.Ltmp145:
	.loc	14 243 14               @ /usr/bin/../lib/gcc/arm-linux-gnueabihf/6.3.0/../../../../include/c++/6.3.0/bits/char_traits.h:243:14
	strb	r0, [sp, #43]
.Ltmp146:
	.loc	9 51 12 discriminator 1 @ /root/Bela/projects/FourierSerious/render.cpp:51:12
.Ltmp82:
.Ltmp147:
	@DEBUG_VALUE: _M_data:this <- undef
	@DEBUG_VALUE: _M_length:this <- undef
	@DEBUG_VALUE: _M_set_length:__n <- 11
	@DEBUG_VALUE: _M_set_length:this <- undef
	@DEBUG_VALUE: _M_data:this <- undef
	@DEBUG_VALUE: _M_construct<const char *>:__dnew <- 11
	@DEBUG_VALUE: _M_construct<const char *>:this <- undef
	@DEBUG_VALUE: _M_construct_aux<const char *>:this <- undef
	@DEBUG_VALUE: _M_construct<const char *>:this <- undef
	@DEBUG_VALUE: _M_local_data:this <- undef
	@DEBUG_VALUE: basic_string:this <- undef
	add	r1, sp, #24
	mov	r0, r6
	bl	_ZN9OscSender10newMessageENSt7__cxx1112basic_stringIcSt11char_traitsIcESaIcEEE
.Ltmp83:
@ BB#12:                                @   in Loop: Header=BB1_2 Depth=1
	.loc	9 51 50 is_stmt 0 discriminator 2 @ /root/Bela/projects/FourierSerious/render.cpp:51:50
	vldr	s0, [r10, #12]
	.loc	9 51 38 discriminator 2 @ /root/Bela/projects/FourierSerious/render.cpp:51:38
.Ltmp84:
	bl	_ZN9OscSender3addEf
.Ltmp85:
@ BB#13:                                @   in Loop: Header=BB1_2 Depth=1
	.loc	9 51 59 discriminator 3 @ /root/Bela/projects/FourierSerious/render.cpp:51:59
.Ltmp86:
	bl	_ZN9OscSender4sendEv
.Ltmp87:
@ BB#14:                                @   in Loop: Header=BB1_2 Depth=1
.Ltmp148:
	.loc	11 136 28 is_stmt 1     @ /usr/bin/../lib/gcc/arm-linux-gnueabihf/6.3.0/../../../../include/c++/6.3.0/bits/basic_string.h:136:28
	ldr	r0, [sp, #24]
.Ltmp149:
	@DEBUG_VALUE: deallocate:__p <- %R0
	@DEBUG_VALUE: deallocate:__p <- %R0
	.loc	11 180 6                @ /usr/bin/../lib/gcc/arm-linux-gnueabihf/6.3.0/../../../../include/c++/6.3.0/bits/basic_string.h:180:6
	cmp	r0, r8
	beq	.LBB1_16
.Ltmp150:
@ BB#15:                                @   in Loop: Header=BB1_2 Depth=1
	@DEBUG_VALUE: deallocate:__p <- %R0
	@DEBUG_VALUE: deallocate:__p <- %R0
	.loc	33 110 9                @ /usr/bin/../lib/gcc/arm-linux-gnueabihf/6.3.0/../../../../include/c++/6.3.0/ext/new_allocator.h:110:9
	bl	_ZdlPv
.Ltmp151:
.LBB1_16:                               @ %_ZNSt7__cxx1112basic_stringIcSt11char_traitsIcESaIcEED2Ev.exit38
                                        @   in Loop: Header=BB1_2 Depth=1
	.loc	14 290 33               @ /usr/bin/../lib/gcc/arm-linux-gnueabihf/6.3.0/../../../../include/c++/6.3.0/bits/char_traits.h:290:33
	mov	r0, #110
.Ltmp152:
	.loc	11 110 25               @ /usr/bin/../lib/gcc/arm-linux-gnueabihf/6.3.0/../../../../include/c++/6.3.0/bits/basic_string.h:110:25
	str	r7, [sp]
.Ltmp153:
	@DEBUG_VALUE: _S_copy:__n <- 7
	.loc	14 290 33               @ /usr/bin/../lib/gcc/arm-linux-gnueabihf/6.3.0/../../../../include/c++/6.3.0/bits/char_traits.h:290:33
	strb	r0, [r7, #6]
	movw	r0, #28532
	strh	r0, [r7, #4]
	movw	r0, #25135
	movt	r0, #29813
	str	r0, [r7]
.Ltmp154:
	@DEBUG_VALUE: _M_length:__length <- 7
	mov	r0, #7
.Ltmp155:
	.loc	11 132 26               @ /usr/bin/../lib/gcc/arm-linux-gnueabihf/6.3.0/../../../../include/c++/6.3.0/bits/basic_string.h:132:26
	str	r0, [sp, #4]
	mov	r0, #0
.Ltmp156:
	.loc	14 243 14               @ /usr/bin/../lib/gcc/arm-linux-gnueabihf/6.3.0/../../../../include/c++/6.3.0/bits/char_traits.h:243:14
	strb	r0, [sp, #15]
.Ltmp157:
	.loc	9 52 12 discriminator 1 @ /root/Bela/projects/FourierSerious/render.cpp:52:12
.Ltmp89:
.Ltmp158:
	@DEBUG_VALUE: _M_data:this <- undef
	@DEBUG_VALUE: _M_length:this <- undef
	@DEBUG_VALUE: _M_set_length:__n <- 7
	@DEBUG_VALUE: _M_set_length:this <- undef
	@DEBUG_VALUE: _M_data:this <- undef
	@DEBUG_VALUE: _M_construct<const char *>:__dnew <- 7
	@DEBUG_VALUE: _M_construct<const char *>:this <- undef
	@DEBUG_VALUE: _M_construct_aux<const char *>:this <- undef
	@DEBUG_VALUE: _M_construct<const char *>:this <- undef
	@DEBUG_VALUE: _M_local_data:this <- undef
	@DEBUG_VALUE: basic_string:this <- undef
	mov	r0, r6
	mov	r1, sp
	bl	_ZN9OscSender10newMessageENSt7__cxx1112basic_stringIcSt11char_traitsIcESaIcEEE
.Ltmp90:
@ BB#17:                                @   in Loop: Header=BB1_2 Depth=1
	.loc	9 52 44 is_stmt 0 discriminator 2 @ /root/Bela/projects/FourierSerious/render.cpp:52:44
	ldr	r1, [r10, #16]
	.loc	9 52 34 discriminator 2 @ /root/Bela/projects/FourierSerious/render.cpp:52:34
.Ltmp91:
	bl	_ZN9OscSender3addEi
.Ltmp92:
@ BB#18:                                @   in Loop: Header=BB1_2 Depth=1
	.loc	9 52 52 discriminator 3 @ /root/Bela/projects/FourierSerious/render.cpp:52:52
.Ltmp93:
	bl	_ZN9OscSender4sendEv
.Ltmp94:
@ BB#19:                                @   in Loop: Header=BB1_2 Depth=1
.Ltmp159:
	.loc	11 136 28 is_stmt 1     @ /usr/bin/../lib/gcc/arm-linux-gnueabihf/6.3.0/../../../../include/c++/6.3.0/bits/basic_string.h:136:28
	ldr	r0, [sp]
.Ltmp160:
	@DEBUG_VALUE: deallocate:__p <- %R0
	@DEBUG_VALUE: deallocate:__p <- %R0
	.loc	11 180 6                @ /usr/bin/../lib/gcc/arm-linux-gnueabihf/6.3.0/../../../../include/c++/6.3.0/bits/basic_string.h:180:6
	cmp	r0, r7
	beq	.LBB1_21
.Ltmp161:
@ BB#20:                                @   in Loop: Header=BB1_2 Depth=1
	@DEBUG_VALUE: deallocate:__p <- %R0
	@DEBUG_VALUE: deallocate:__p <- %R0
	.loc	33 110 9                @ /usr/bin/../lib/gcc/arm-linux-gnueabihf/6.3.0/../../../../include/c++/6.3.0/ext/new_allocator.h:110:9
	bl	_ZdlPv
.Ltmp162:
.LBB1_21:                               @ %_ZNSt7__cxx1112basic_stringIcSt11char_traitsIcESaIcEED2Ev.exit24
                                        @   in Loop: Header=BB1_2 Depth=1
	.loc	9 54 14                 @ /root/Bela/projects/FourierSerious/render.cpp:54:14
	ldr	r0, [r10, #20]
.Ltmp163:
	.loc	9 38 53 discriminator 3 @ /root/Bela/projects/FourierSerious/render.cpp:38:53
	add	r5, r5, #1
.Ltmp164:
	@DEBUG_VALUE: n <- %R5
	.loc	9 54 14                 @ /root/Bela/projects/FourierSerious/render.cpp:54:14
	add	r0, r0, #1
	str	r0, [r10, #20]
.Ltmp165:
	.loc	9 38 39 discriminator 1 @ /root/Bela/projects/FourierSerious/render.cpp:38:39
	ldr	r0, [r4, #20]
	.loc	9 38 2 is_stmt 0 discriminator 1 @ /root/Bela/projects/FourierSerious/render.cpp:38:2
	cmp	r5, r0
	blo	.LBB1_2
.Ltmp166:
.LBB1_22:                               @ %._crit_edge
	.loc	9 56 1 is_stmt 1 discriminator 6 @ /root/Bela/projects/FourierSerious/render.cpp:56:1
	sub	sp, r11, #28
	pop	{r4, r5, r6, r7, r8, r9, r10, r11, pc}
.LBB1_23:
.Ltmp95:
	mov	r4, r0
.Ltmp167:
	.loc	11 136 28               @ /usr/bin/../lib/gcc/arm-linux-gnueabihf/6.3.0/../../../../include/c++/6.3.0/bits/basic_string.h:136:28
	ldr	r0, [sp]
.Ltmp168:
	@DEBUG_VALUE: deallocate:__p <- %R0
	@DEBUG_VALUE: deallocate:__p <- %R0
	.loc	11 180 6                @ /usr/bin/../lib/gcc/arm-linux-gnueabihf/6.3.0/../../../../include/c++/6.3.0/bits/basic_string.h:180:6
	cmp	r0, r7
	bne	.LBB1_26
	b	.LBB1_27
.Ltmp169:
.LBB1_24:
.Ltmp88:
	mov	r4, r0
.Ltmp170:
	.loc	11 136 28               @ /usr/bin/../lib/gcc/arm-linux-gnueabihf/6.3.0/../../../../include/c++/6.3.0/bits/basic_string.h:136:28
	ldr	r0, [sp, #24]
.Ltmp171:
	@DEBUG_VALUE: deallocate:__p <- %R0
	@DEBUG_VALUE: deallocate:__p <- %R0
	.loc	11 180 6                @ /usr/bin/../lib/gcc/arm-linux-gnueabihf/6.3.0/../../../../include/c++/6.3.0/bits/basic_string.h:180:6
	cmp	r0, r8
	bne	.LBB1_26
	b	.LBB1_27
.Ltmp172:
.LBB1_25:
.Ltmp81:
	mov	r4, r0
.Ltmp173:
	.loc	11 136 28               @ /usr/bin/../lib/gcc/arm-linux-gnueabihf/6.3.0/../../../../include/c++/6.3.0/bits/basic_string.h:136:28
	ldr	r0, [sp, #48]
.Ltmp174:
	@DEBUG_VALUE: deallocate:__p <- %R0
	@DEBUG_VALUE: deallocate:__p <- %R0
	.loc	11 180 6                @ /usr/bin/../lib/gcc/arm-linux-gnueabihf/6.3.0/../../../../include/c++/6.3.0/bits/basic_string.h:180:6
	cmp	r0, r9
	beq	.LBB1_27
.Ltmp175:
.LBB1_26:
	.loc	33 110 9                @ /usr/bin/../lib/gcc/arm-linux-gnueabihf/6.3.0/../../../../include/c++/6.3.0/ext/new_allocator.h:110:9
	bl	_ZdlPv
.Ltmp176:
.LBB1_27:                               @ %_ZNSt7__cxx1112basic_stringIcSt11char_traitsIcESaIcEED2Ev.exit23
	mov	r0, r4
	mov	lr, pc
	b	_Unwind_Resume
.Lfunc_end1:
	.size	render, .Lfunc_end1-render
	.cfi_endproc
	.globl	__gxx_personality_v0
	.personality __gxx_personality_v0
	.handlerdata
	.p2align	2
GCC_except_table1:
.Lexception1:
	.byte	255                     @ @LPStart Encoding = omit
	.byte	0                       @ @TType Encoding = absptr
	.asciz	"\303\200"              @ @TType base offset
	.byte	3                       @ Call site Encoding = udata4
	.byte	65                      @ Call site table length
	.long	.Lfunc_begin1-.Lfunc_begin1 @ >> Call Site 1 <<
	.long	.Ltmp75-.Lfunc_begin1   @   Call between .Lfunc_begin1 and .Ltmp75
	.long	0                       @     has no landing pad
	.byte	0                       @   On action: cleanup
	.long	.Ltmp75-.Lfunc_begin1   @ >> Call Site 2 <<
	.long	.Ltmp80-.Ltmp75         @   Call between .Ltmp75 and .Ltmp80
	.long	.Ltmp81-.Lfunc_begin1   @     jumps to .Ltmp81
	.byte	0                       @   On action: cleanup
	.long	.Ltmp82-.Lfunc_begin1   @ >> Call Site 3 <<
	.long	.Ltmp87-.Ltmp82         @   Call between .Ltmp82 and .Ltmp87
	.long	.Ltmp88-.Lfunc_begin1   @     jumps to .Ltmp88
	.byte	0                       @   On action: cleanup
	.long	.Ltmp89-.Lfunc_begin1   @ >> Call Site 4 <<
	.long	.Ltmp94-.Ltmp89         @   Call between .Ltmp89 and .Ltmp94
	.long	.Ltmp95-.Lfunc_begin1   @     jumps to .Ltmp95
	.byte	0                       @   On action: cleanup
	.long	.Ltmp94-.Lfunc_begin1   @ >> Call Site 5 <<
	.long	.Lfunc_end1-.Ltmp94     @   Call between .Ltmp94 and .Lfunc_end1
	.long	0                       @     has no landing pad
	.byte	0                       @   On action: cleanup
	.p2align	2
	.fnend

	.globl	cleanup
	.p2align	2
	.type	cleanup,%function
cleanup:                                @ @cleanup
.Lfunc_begin2:
	.loc	9 59 0                  @ /root/Bela/projects/FourierSerious/render.cpp:59:0
	.fnstart
	.cfi_startproc
@ BB#0:
	@DEBUG_VALUE: cleanup:context <- %R0
	@DEBUG_VALUE: cleanup:userData <- %R1
	.loc	9 61 1 prologue_end     @ /root/Bela/projects/FourierSerious/render.cpp:61:1
	bx	lr
.Ltmp177:
.Lfunc_end2:
	.size	cleanup, .Lfunc_end2-cleanup
	.cfi_endproc
	.fnend

	.section	.text.startup,"ax",%progbits
	.p2align	2
	.type	_GLOBAL__sub_I_render.ii,%function
_GLOBAL__sub_I_render.ii:               @ @_GLOBAL__sub_I_render.ii
.Lfunc_begin3:
	.loc	19 0 0                  @ /root/Bela/projects/FourierSerious/build/render.cpp:0:0
	.fnstart
	.cfi_startproc
@ BB#0:
	.save	{r4, r10, r11, lr}
	push	{r4, r10, r11, lr}
.Ltmp178:
	.cfi_def_cfa_offset 16
.Ltmp179:
	.cfi_offset lr, -4
.Ltmp180:
	.cfi_offset r11, -8
.Ltmp181:
	.cfi_offset r10, -12
.Ltmp182:
	.cfi_offset r4, -16
	.setfp	r11, sp, #8
	add	r11, sp, #8
.Ltmp183:
	.cfi_def_cfa r11, 8
.Ltmp184:
	.loc	9 5 11 prologue_end     @ /root/Bela/projects/FourierSerious/render.cpp:5:11
	movw	r0, :lower16:.L_MergedGlobals
	movt	r0, :upper16:.L_MergedGlobals
	add	r4, r0, #28
	mov	r0, r4
	bl	_ZN9OscSenderC1Ev
	.loc	9 5 11 is_stmt 0 discriminator 1 @ /root/Bela/projects/FourierSerious/render.cpp:5:11
	movw	r0, :lower16:_ZN9OscSenderD1Ev
	movw	r2, :lower16:__dso_handle
	movt	r0, :upper16:_ZN9OscSenderD1Ev
	movt	r2, :upper16:__dso_handle
	mov	r1, r4
	pop	{r4, r10, r11, lr}
	b	__cxa_atexit
.Ltmp185:
.Lfunc_end3:
	.size	_GLOBAL__sub_I_render.ii, .Lfunc_end3-_GLOBAL__sub_I_render.ii
	.cfi_endproc
	.fnend

	.type	.L.str,%object          @ @.str
	.section	.rodata.str1.1,"aMS",%progbits,1
.L.str:
	.asciz	"192.168.6.1"
	.size	.L.str, 12

	.type	.L.str.1,%object        @ @.str.1
.L.str.1:
	.asciz	"Error: This example requires analog inputs to be enabled"
	.size	.L.str.1, 57

	.type	.L.str.2,%object        @ @.str.2
.L.str.2:
	.asciz	"Error: for this project the sampling rate of the analog inputs has to be <= the audio sample rate\n"
	.size	.L.str.2, 99

	.type	.L.str.3,%object        @ @.str.3
	.section	.rodata.str1.8,"aMS",%progbits,1
	.p2align	3
.L.str.3:
	.asciz	"/joystick/x"
	.size	.L.str.3, 12

	.type	.L.str.4,%object        @ @.str.4
	.p2align	3
.L.str.4:
	.asciz	"/joystick/y"
	.size	.L.str.4, 12

	.type	.L.str.5,%object        @ @.str.5
	.p2align	3
.L.str.5:
	.asciz	"/button"
	.size	.L.str.5, 8

	.type	.L.str.6,%object        @ @.str.6
	.section	.rodata.str1.1,"aMS",%progbits,1
.L.str.6:
	.asciz	"basic_string::_M_construct null not valid"
	.size	.L.str.6, 42

	.section	.init_array,"aw",%init_array
	.p2align	2
	.long	_GLOBAL__sub_I_render.ii(target1)
	.type	.L_MergedGlobals,%object @ @_MergedGlobals
	.data
	.p2align	4
.L_MergedGlobals:
	.long	7563                    @ 0x1d8b
	.long	.L.str
	.long	0                       @ float 0
	.long	0                       @ float 0
	.long	0                       @ 0x0
	.long	0                       @ 0x0
	.long	0                       @ 0x0
	.zero	16
	.size	.L_MergedGlobals, 44

	.section	".note.GNU-stack","",%progbits
	.eabi_attribute	30, 2	@ Tag_ABI_optimization_goals